; ModuleID = '9/46.c'
source_filename = "9/46.c"
target datalayout = "e-m:e-p270:32:32-p271:32:32-p272:64:64-i64:64-f80:128-n8:16:32:64-S128"
target triple = "x86_64-pc-linux-gnu"

@.str = private unnamed_addr constant [3 x i8] c"%d\00", align 1
@.str.1 = private unnamed_addr constant [5 x i8] c"%s%d\00", align 1
@.str.2 = private unnamed_addr constant [4 x i8] c"%s\0A\00", align 1

; Function Attrs: noinline nounwind uwtable
define dso_local void @main() #0 {
  %1 = alloca i32, align 4
  %2 = alloca i32, align 4
  %3 = alloca i32, align 4
  %4 = alloca [100 x i32], align 16
  %5 = alloca [100 x i32], align 16
  %6 = alloca [100 x i32], align 16
  %7 = alloca i32, align 4
  %8 = alloca i32, align 4
  %9 = alloca [100 x [10 x i8]], align 16
  %10 = alloca [100 x [10 x i8]], align 16
  %11 = alloca [10 x i8], align 1
  %12 = bitcast [100 x i32]* %6 to i8*
  call void @llvm.memset.p0i8.i64(i8* align 16 %12, i8 0, i64 400, i1 false)
  store i32 0, i32* %8, align 4
  %13 = call i32 (i8*, ...) @__isoc99_scanf(i8* getelementptr inbounds ([3 x i8], [3 x i8]* @.str, i64 0, i64 0), i32* %1)
  store i32 0, i32* %2, align 4
  br label %14

14:                                               ; preds = %56, %0
  %15 = load i32, i32* %2, align 4
  %16 = load i32, i32* %1, align 4
  %17 = icmp slt i32 %15, %16
  br i1 %17, label %18, label %59

18:                                               ; preds = %14
  %19 = load i32, i32* %2, align 4
  %20 = sext i32 %19 to i64
  %21 = getelementptr inbounds [100 x [10 x i8]], [100 x [10 x i8]]* %9, i64 0, i64 %20
  %22 = getelementptr inbounds [10 x i8], [10 x i8]* %21, i64 0, i64 0
  %23 = getelementptr inbounds [100 x i32], [100 x i32]* %4, i64 0, i64 0
  %24 = load i32, i32* %2, align 4
  %25 = sext i32 %24 to i64
  %26 = getelementptr inbounds i32, i32* %23, i64 %25
  %27 = call i32 (i8*, ...) @__isoc99_scanf(i8* getelementptr inbounds ([5 x i8], [5 x i8]* @.str.1, i64 0, i64 0), i8* %22, i32* %26)
  %28 = load i32, i32* %2, align 4
  %29 = sext i32 %28 to i64
  %30 = getelementptr inbounds [100 x i32], [100 x i32]* %4, i64 0, i64 %29
  %31 = load i32, i32* %30, align 4
  %32 = icmp sge i32 %31, 60
  br i1 %32, label %33, label %55

33:                                               ; preds = %18
  %34 = load i32, i32* %2, align 4
  %35 = sext i32 %34 to i64
  %36 = getelementptr inbounds [100 x i32], [100 x i32]* %6, i64 0, i64 %35
  store i32 1, i32* %36, align 4
  %37 = load i32, i32* %2, align 4
  %38 = sext i32 %37 to i64
  %39 = getelementptr inbounds [100 x i32], [100 x i32]* %4, i64 0, i64 %38
  %40 = load i32, i32* %39, align 4
  %41 = load i32, i32* %8, align 4
  %42 = sext i32 %41 to i64
  %43 = getelementptr inbounds [100 x i32], [100 x i32]* %5, i64 0, i64 %42
  store i32 %40, i32* %43, align 4
  %44 = load i32, i32* %8, align 4
  %45 = sext i32 %44 to i64
  %46 = getelementptr inbounds [100 x [10 x i8]], [100 x [10 x i8]]* %10, i64 0, i64 %45
  %47 = getelementptr inbounds [10 x i8], [10 x i8]* %46, i64 0, i64 0
  %48 = load i32, i32* %2, align 4
  %49 = sext i32 %48 to i64
  %50 = getelementptr inbounds [100 x [10 x i8]], [100 x [10 x i8]]* %9, i64 0, i64 %49
  %51 = getelementptr inbounds [10 x i8], [10 x i8]* %50, i64 0, i64 0
  %52 = call i8* @strcpy(i8* %47, i8* %51) #4
  %53 = load i32, i32* %8, align 4
  %54 = add nsw i32 %53, 1
  store i32 %54, i32* %8, align 4
  br label %55

55:                                               ; preds = %33, %18
  br label %56

56:                                               ; preds = %55
  %57 = load i32, i32* %2, align 4
  %58 = add nsw i32 %57, 1
  store i32 %58, i32* %2, align 4
  br label %14

59:                                               ; preds = %14
  store i32 1, i32* %2, align 4
  br label %60

60:                                               ; preds = %128, %59
  %61 = load i32, i32* %2, align 4
  %62 = load i32, i32* %8, align 4
  %63 = icmp slt i32 %61, %62
  br i1 %63, label %64, label %131

64:                                               ; preds = %60
  store i32 0, i32* %3, align 4
  br label %65

65:                                               ; preds = %124, %64
  %66 = load i32, i32* %3, align 4
  %67 = load i32, i32* %8, align 4
  %68 = load i32, i32* %2, align 4
  %69 = sub nsw i32 %67, %68
  %70 = icmp slt i32 %66, %69
  br i1 %70, label %71, label %127

71:                                               ; preds = %65
  %72 = load i32, i32* %3, align 4
  %73 = sext i32 %72 to i64
  %74 = getelementptr inbounds [100 x i32], [100 x i32]* %5, i64 0, i64 %73
  %75 = load i32, i32* %74, align 4
  %76 = load i32, i32* %3, align 4
  %77 = add nsw i32 %76, 1
  %78 = sext i32 %77 to i64
  %79 = getelementptr inbounds [100 x i32], [100 x i32]* %5, i64 0, i64 %78
  %80 = load i32, i32* %79, align 4
  %81 = icmp slt i32 %75, %80
  br i1 %81, label %82, label %123

82:                                               ; preds = %71
  %83 = load i32, i32* %3, align 4
  %84 = sext i32 %83 to i64
  %85 = getelementptr inbounds [100 x i32], [100 x i32]* %5, i64 0, i64 %84
  %86 = load i32, i32* %85, align 4
  store i32 %86, i32* %7, align 4
  %87 = load i32, i32* %3, align 4
  %88 = add nsw i32 %87, 1
  %89 = sext i32 %88 to i64
  %90 = getelementptr inbounds [100 x i32], [100 x i32]* %5, i64 0, i64 %89
  %91 = load i32, i32* %90, align 4
  %92 = load i32, i32* %3, align 4
  %93 = sext i32 %92 to i64
  %94 = getelementptr inbounds [100 x i32], [100 x i32]* %5, i64 0, i64 %93
  store i32 %91, i32* %94, align 4
  %95 = load i32, i32* %7, align 4
  %96 = load i32, i32* %3, align 4
  %97 = add nsw i32 %96, 1
  %98 = sext i32 %97 to i64
  %99 = getelementptr inbounds [100 x i32], [100 x i32]* %5, i64 0, i64 %98
  store i32 %95, i32* %99, align 4
  %100 = getelementptr inbounds [10 x i8], [10 x i8]* %11, i64 0, i64 0
  %101 = load i32, i32* %3, align 4
  %102 = sext i32 %101 to i64
  %103 = getelementptr inbounds [100 x [10 x i8]], [100 x [10 x i8]]* %10, i64 0, i64 %102
  %104 = getelementptr inbounds [10 x i8], [10 x i8]* %103, i64 0, i64 0
  %105 = call i8* @strcpy(i8* %100, i8* %104) #4
  %106 = load i32, i32* %3, align 4
  %107 = sext i32 %106 to i64
  %108 = getelementptr inbounds [100 x [10 x i8]], [100 x [10 x i8]]* %10, i64 0, i64 %107
  %109 = getelementptr inbounds [10 x i8], [10 x i8]* %108, i64 0, i64 0
  %110 = load i32, i32* %3, align 4
  %111 = add nsw i32 %110, 1
  %112 = sext i32 %111 to i64
  %113 = getelementptr inbounds [100 x [10 x i8]], [100 x [10 x i8]]* %10, i64 0, i64 %112
  %114 = getelementptr inbounds [10 x i8], [10 x i8]* %113, i64 0, i64 0
  %115 = call i8* @strcpy(i8* %109, i8* %114) #4
  %116 = load i32, i32* %3, align 4
  %117 = add nsw i32 %116, 1
  %118 = sext i32 %117 to i64
  %119 = getelementptr inbounds [100 x [10 x i8]], [100 x [10 x i8]]* %10, i64 0, i64 %118
  %120 = getelementptr inbounds [10 x i8], [10 x i8]* %119, i64 0, i64 0
  %121 = getelementptr inbounds [10 x i8], [10 x i8]* %11, i64 0, i64 0
  %122 = call i8* @strcpy(i8* %120, i8* %121) #4
  br label %123

123:                                              ; preds = %82, %71
  br label %124

124:                                              ; preds = %123
  %125 = load i32, i32* %3, align 4
  %126 = add nsw i32 %125, 1
  store i32 %126, i32* %3, align 4
  br label %65

127:                                              ; preds = %65
  br label %128

128:                                              ; preds = %127
  %129 = load i32, i32* %2, align 4
  %130 = add nsw i32 %129, 1
  store i32 %130, i32* %2, align 4
  br label %60

131:                                              ; preds = %60
  store i32 0, i32* %2, align 4
  br label %132

132:                                              ; preds = %142, %131
  %133 = load i32, i32* %2, align 4
  %134 = load i32, i32* %8, align 4
  %135 = icmp slt i32 %133, %134
  br i1 %135, label %136, label %145

136:                                              ; preds = %132
  %137 = load i32, i32* %2, align 4
  %138 = sext i32 %137 to i64
  %139 = getelementptr inbounds [100 x [10 x i8]], [100 x [10 x i8]]* %10, i64 0, i64 %138
  %140 = getelementptr inbounds [10 x i8], [10 x i8]* %139, i64 0, i64 0
  %141 = call i32 (i8*, ...) @printf(i8* getelementptr inbounds ([4 x i8], [4 x i8]* @.str.2, i64 0, i64 0), i8* %140)
  br label %142

142:                                              ; preds = %136
  %143 = load i32, i32* %2, align 4
  %144 = add nsw i32 %143, 1
  store i32 %144, i32* %2, align 4
  br label %132

145:                                              ; preds = %132
  store i32 0, i32* %2, align 4
  br label %146

146:                                              ; preds = %163, %145
  %147 = load i32, i32* %2, align 4
  %148 = load i32, i32* %1, align 4
  %149 = icmp slt i32 %147, %148
  br i1 %149, label %150, label %166

150:                                              ; preds = %146
  %151 = load i32, i32* %2, align 4
  %152 = sext i32 %151 to i64
  %153 = getelementptr inbounds [100 x i32], [100 x i32]* %6, i64 0, i64 %152
  %154 = load i32, i32* %153, align 4
  %155 = icmp eq i32 %154, 0
  br i1 %155, label %156, label %162

156:                                              ; preds = %150
  %157 = load i32, i32* %2, align 4
  %158 = sext i32 %157 to i64
  %159 = getelementptr inbounds [100 x [10 x i8]], [100 x [10 x i8]]* %9, i64 0, i64 %158
  %160 = getelementptr inbounds [10 x i8], [10 x i8]* %159, i64 0, i64 0
  %161 = call i32 (i8*, ...) @printf(i8* getelementptr inbounds ([4 x i8], [4 x i8]* @.str.2, i64 0, i64 0), i8* %160)
  br label %162

162:                                              ; preds = %156, %150
  br label %163

163:                                              ; preds = %162
  %164 = load i32, i32* %2, align 4
  %165 = add nsw i32 %164, 1
  store i32 %165, i32* %2, align 4
  br label %146

166:                                              ; preds = %146
  ret void
}

; Function Attrs: argmemonly nounwind willreturn
declare void @llvm.memset.p0i8.i64(i8* nocapture writeonly, i8, i64, i1 immarg) #1

declare dso_local i32 @__isoc99_scanf(i8*, ...) #2

; Function Attrs: nounwind
declare dso_local i8* @strcpy(i8*, i8*) #3

declare dso_local i32 @printf(i8*, ...) #2


!llvm.module.flags = !{!0}
!llvm.ident = !{!1}

!0 = !{i32 1, !"wchar_size", i32 4}
!1 = !{!"clang version 10.0.0-4ubuntu1 "}
